#include <math.h>
#include <stdio.h>
#include <stdlib.h>
#include <string.h>

struct student //??????
{
	char num[10]; //??
	char name[20]; //??
	char sex[5]; //??
	int age; //??
	char score[20]; //??
	char addr[20]; //??
	struct student *next;
};
struct student *head; //???????
struct student *input() //??????
{
	struct student *p1,*p2;
		p1=p2=(struct student *)malloc(sizeof(struct student)); //????????????
		scanf("%s",p1->num); //????
		p2->next=NULL; //??p2????
		while(strcmp(p1->num,"end")!=0) //???????end??????????
		{
			scanf("%s",p1->name); //????
			scanf("%s",p1->sex); //????
			scanf("%d",&p1->age); //????
			scanf("%s",p1->score); //????
			scanf("%s",p1->addr); //????
			p1=(struct student *)malloc(sizeof(struct student)); //??????????
			scanf("%s",p1->num); //????
			p1->next=p2; //p2????p1????????
			p2=p1; //?p1?????p2
		}
		head=p1; //?????p1
		return(head); //??
}
void print(struct student *head) //??????
{
	struct student *p; //??????????????
	p=head->next; //p?????????????
	if(head!=NULL) //????????????
		do
		{
			printf("%s %s %s %d %s %s\n",p->num,p->name,p->sex,p->age,p->score,p->addr);
			p=p->next;
		}
		while(p!=NULL); //?p?????????????????????
}
main() //?????
{
	input(); //??????
	print(head); //??????
	struct student *p1,*p2; //????????
	p1=p2=head->next; //?p1?p2??????????
	if(head!=NULL) //???????NULL???
		do
		{
			p1=p2->next; //?p2?????????p1
			free(p2); //??p2???
			p2=p1;	 //?p1????p2
		}
		while(p2!=NULL); //?p2??NULL???
	return 0; //??;
}